target datalayout = "e-m:e-p270:32:32-p271:32:32-p272:64:64-i64:64-i128:128-f80:128-n8:16:32:64-S128"
target triple = "x86_64-pc-linux-gnu"

%struct.ftp_conversation_t = type { ptr, i32, ptr, ptr, i32, ptr, i32, i8 }
%struct.ftp_packet_data_t = type { ptr }

@proto_ftp = internal global i32 0, align 4

; Function Attrs: null_pointer_is_valid sspstrong uwtable
define internal void @store_directory_in_packet(ptr noundef %0, ptr noundef %1) #0 {
  %3 = alloca ptr, align 8
  %4 = alloca ptr, align 8
  %5 = alloca ptr, align 8
  store ptr %0, ptr %3, align 8
  store ptr %1, ptr %4, align 8
  call void @llvm.lifetime.start.p0(i64 8, ptr %5) #16
  %6 = call ptr @wmem_file_scope()
  %7 = call noalias ptr @wmem_alloc0(ptr noundef %6, i64 noundef 8) #17
  store ptr %7, ptr %5, align 8
  %8 = call ptr @wmem_file_scope()
  %9 = load ptr, ptr %4, align 8
  %10 = getelementptr inbounds nuw %struct.ftp_conversation_t, ptr %9, i32 0, i32 2
  %11 = load ptr, ptr %10, align 8
  %12 = call ptr @wmem_strbuf_get_str(ptr noundef %11)
  %13 = call noalias ptr @wmem_strbuf_new(ptr noundef %8, ptr noundef %12)
  %14 = load ptr, ptr %5, align 8
  %15 = getelementptr inbounds nuw %struct.ftp_packet_data_t, ptr %14, i32 0, i32 0
  store ptr %13, ptr %15, align 8
  %16 = call ptr @wmem_file_scope()
  %17 = load ptr, ptr %3, align 8
  %18 = load i32, ptr @proto_ftp, align 4
  %19 = load ptr, ptr %5, align 8
  call void @p_add_proto_data(ptr noundef %16, ptr noundef %17, i32 noundef %18, i32 noundef 0, ptr noundef %19)
  call void @llvm.lifetime.end.p0(i64 8, ptr %5) #16
  ret void
}