; Function Attrs: null_pointer_is_valid sspstrong uwtable
define internal fastcc void @store_directory_in_packet(ptr noundef %0, ptr noundef readonly captures(none) %1) unnamed_addr #0 {
  %3 = tail call ptr @wmem_file_scope()
  %4 = tail call noalias dereferenceable_or_null(8) ptr @wmem_alloc0(ptr noundef %3, i64 noundef 8) #13
  %5 = tail call ptr @wmem_file_scope()
  %6 = getelementptr inbounds nuw i8, ptr %1, i64 16
  %7 = load ptr, ptr %6, align 8
  %8 = tail call ptr @wmem_strbuf_get_str(ptr noundef %7)
  %9 = tail call noalias ptr @wmem_strbuf_new(ptr noundef %5, ptr noundef %8)
  store ptr %9, ptr %4, align 8
  %10 = tail call ptr @wmem_file_scope()
  %11 = load i32, ptr @proto_ftp, align 4
  tail call void @p_add_proto_data(ptr noundef %10, ptr noundef %0, i32 noundef %11, i32 noundef 0, ptr noundef %4)
  ret void
}